; Function Attrs: mustprogress nounwind uwtable
define dso_local void @_ZNK4llvm19AArch64RegisterInfo27emitReservedArgRegCallErrorERKNS_15MachineFunctionE(ptr nocapture noundef nonnull readnone align 8 dereferenceable(320) %0, ptr nocapture noundef nonnull readonly align 8 dereferenceable(1041) %1) local_unnamed_addr #2 align 2 {
  %3 = alloca %"class.llvm::DiagnosticInfoUnsupported", align 8
  %4 = load ptr, ptr %1, align 8
  %5 = tail call noundef nonnull align 8 dereferenceable(8) ptr @_ZNK4llvm8Function10getContextEv(ptr noundef nonnull align 8 dereferenceable(136) %4) #18
  %6 = getelementptr inbounds nuw i8, ptr %3, i64 8
  %7 = getelementptr inbounds nuw i8, ptr %3, i64 24
  call void @llvm.memset.p0.i64(ptr noundef nonnull align 8 dereferenceable(16) %7, i8 0, i64 16, i1 false)
  store i32 20, ptr %6, align 8
  %8 = getelementptr inbounds nuw i8, ptr %3, i64 12
  store i8 0, ptr %8, align 4
  %9 = getelementptr inbounds nuw i8, ptr %3, i64 16
  store ptr %4, ptr %9, align 8
  store ptr getelementptr inbounds inrange(-16, 32) (i8, ptr @_ZTVN4llvm25DiagnosticInfoUnsupportedE, i64 16), ptr %3, align 8
  %10 = getelementptr inbounds nuw i8, ptr %3, i64 40
  store ptr @.str.77, ptr %10, align 8
  %.sroa.23.0..sroa_idx = getelementptr inbounds i8, ptr %3, i64 72
  store i8 3, ptr %.sroa.23.0..sroa_idx, align 8
  %.sroa.4.0..sroa_idx = getelementptr inbounds i8, ptr %3, i64 73
  store i8 1, ptr %.sroa.4.0..sroa_idx, align 1
  call void @_ZN4llvm11LLVMContext8diagnoseERKNS_14DiagnosticInfoE(ptr noundef nonnull align 8 dereferenceable(8) %5, ptr noundef nonnull align 8 dereferenceable(13) %3) #18
  ret void
}